target datalayout = "e-m:e-p270:32:32-p271:32:32-p272:64:64-i64:64-i128:128-f80:128-n8:16:32:64-S128"
target triple = "x86_64-pc-linux-gnu"

@.str.15 = private unnamed_addr constant [5 x i32] [i32 37, i32 99, i32 58, i32 92, i32 0], align 4

; Function Attrs: mustprogress nounwind uwtable
define noundef zeroext i1 @_Z10IsDriveDivi(i32 noundef %0) #2 {
  %2 = alloca i32, align 4
  store i32 %0, ptr %2, align 4
  ret i1 false
}

; Function Attrs: mustprogress uwtable
define noundef zeroext i1 @_Z13IsDriveLetterPKw(ptr noundef %0) #0 {
  %2 = alloca ptr, align 8
  %3 = alloca i32, align 4
  store ptr %0, ptr %2, align 8
  %4 = load ptr, ptr %2, align 8
  %5 = getelementptr inbounds i32, ptr %4, i64 0
  %6 = load i32, ptr %5, align 4
  %7 = call noundef signext i32 @_Z9etoupperww(i32 noundef signext %6)
  store i32 %7, ptr %3, align 4
  %8 = load i32, ptr %3, align 4
  %9 = icmp sge i32 %8, 65
  br i1 %9, label %10, label %18

10:                                               ; preds = %1
  %11 = load i32, ptr %3, align 4
  %12 = icmp sle i32 %11, 90
  br i1 %12, label %13, label %18

13:                                               ; preds = %10
  %14 = load ptr, ptr %2, align 8
  %15 = getelementptr inbounds i32, ptr %14, i64 1
  %16 = load i32, ptr %15, align 4
  %17 = call noundef zeroext i1 @_Z10IsDriveDivi(i32 noundef %16)
  br label %18

18:                                               ; preds = %13, %10, %1
  %19 = phi i1 [ false, %10 ], [ false, %1 ], [ %17, %13 ]
  ret i1 %19
}

; Function Attrs: mustprogress uwtable
define void @_Z11GetPathRootPKwPwm(ptr noundef %0, ptr noundef %1, i64 noundef %2) #0 {
  %4 = alloca ptr, align 8
  %5 = alloca ptr, align 8
  %6 = alloca i64, align 8
  %7 = alloca ptr, align 8
  %8 = alloca i64, align 8
  store ptr %0, ptr %4, align 8
  store ptr %1, ptr %5, align 8
  store i64 %2, ptr %6, align 8
  %9 = load ptr, ptr %5, align 8
  store i32 0, ptr %9, align 4
  %10 = load ptr, ptr %4, align 8
  %11 = call noundef zeroext i1 @_Z13IsDriveLetterPKw(ptr noundef %10)
  br i1 %11, label %12, label %18

12:                                               ; preds = %3
  %13 = load ptr, ptr %5, align 8
  %14 = load i64, ptr %6, align 8
  %15 = load ptr, ptr %4, align 8
  %16 = load i32, ptr %15, align 4
  %17 = call i32 (ptr, i64, ptr, ...) @swprintf(ptr noundef %13, i64 noundef %14, ptr noundef @.str.15, i32 noundef %16) #7
  br label %65

18:                                               ; preds = %3
  %19 = load ptr, ptr %4, align 8
  %20 = getelementptr inbounds i32, ptr %19, i64 0
  %21 = load i32, ptr %20, align 4
  %22 = icmp eq i32 %21, 92
  br i1 %22, label %23, label %64

23:                                               ; preds = %18
  %24 = load ptr, ptr %4, align 8
  %25 = getelementptr inbounds i32, ptr %24, i64 1
  %26 = load i32, ptr %25, align 4
  %27 = icmp eq i32 %26, 92
  br i1 %27, label %28, label %64

28:                                               ; preds = %23
  %29 = load ptr, ptr %4, align 8
  %30 = getelementptr inbounds i32, ptr %29, i64 2
  %31 = call ptr @wcschr(ptr noundef %30, i32 noundef signext 92) #6
  store ptr %31, ptr %7, align 8
  %32 = load ptr, ptr %7, align 8
  %33 = icmp ne ptr %32, null
  br i1 %33, label %34, label %63

34:                                               ; preds = %28
  %35 = load ptr, ptr %7, align 8
  %36 = getelementptr inbounds i32, ptr %35, i64 1
  %37 = call ptr @wcschr(ptr noundef %36, i32 noundef signext 92) #6
  store ptr %37, ptr %7, align 8
  %38 = icmp ne ptr %37, null
  br i1 %38, label %39, label %47

39:                                               ; preds = %34
  %40 = load ptr, ptr %7, align 8
  %41 = load ptr, ptr %4, align 8
  %42 = ptrtoint ptr %40 to i64
  %43 = ptrtoint ptr %41 to i64
  %44 = sub i64 %42, %43
  %45 = sdiv exact i64 %44, 4
  %46 = add nsw i64 %45, 1
  store i64 %46, ptr %8, align 8
  br label %50

47:                                               ; preds = %34
  %48 = load ptr, ptr %4, align 8
  %49 = call i64 @wcslen(ptr noundef %48) #6
  store i64 %49, ptr %8, align 8
  br label %50

50:                                               ; preds = %47, %39
  %51 = load i64, ptr %8, align 8
  %52 = load i64, ptr %6, align 8
  %53 = icmp uge i64 %51, %52
  br i1 %53, label %54, label %55

54:                                               ; preds = %50
  store i64 0, ptr %8, align 8
  br label %55

55:                                               ; preds = %54, %50
  %56 = load ptr, ptr %5, align 8
  %57 = load ptr, ptr %4, align 8
  %58 = load i64, ptr %8, align 8
  %59 = call ptr @wcsncpy(ptr noundef %56, ptr noundef %57, i64 noundef %58) #7
  %60 = load ptr, ptr %5, align 8
  %61 = load i64, ptr %8, align 8
  %62 = getelementptr inbounds i32, ptr %60, i64 %61
  store i32 0, ptr %62, align 4
  br label %63

63:                                               ; preds = %55, %28
  br label %64

64:                                               ; preds = %63, %23, %18
  br label %65

65:                                               ; preds = %64, %12
  ret void
}