; Function Attrs: mustprogress uwtable
define void @_Z11GetPathRootPKwPwm(ptr noundef %0, ptr noundef initializes((0, 4)) %1, i64 noundef %2) local_unnamed_addr #3 {
  store i32 0, ptr %1, align 4
  %4 = load i32, ptr %0, align 4
  %5 = tail call noundef signext i32 @_Z9etoupperww(i32 noundef signext %4)
  %6 = load i32, ptr %0, align 4
  %7 = icmp eq i32 %6, 92
  br i1 %7, label %8, label %29

8:                                                ; preds = %3
  %9 = getelementptr inbounds nuw i8, ptr %0, i64 4
  %10 = load i32, ptr %9, align 4
  %11 = icmp eq i32 %10, 92
  br i1 %11, label %12, label %29

12:                                               ; preds = %8
  %13 = getelementptr inbounds nuw i8, ptr %0, i64 8
  %14 = tail call ptr @wcschr(ptr noundef nonnull %13, i32 noundef signext 92) #18
  %.not = icmp eq ptr %14, null
  br i1 %.not, label %29, label %15

15:                                               ; preds = %12
  %16 = getelementptr inbounds nuw i8, ptr %14, i64 4
  %17 = tail call ptr @wcschr(ptr noundef nonnull %16, i32 noundef signext 92) #18
  %.not21 = icmp eq ptr %17, null
  br i1 %.not21, label %24, label %18

18:                                               ; preds = %15
  %19 = ptrtoint ptr %17 to i64
  %20 = ptrtoint ptr %0 to i64
  %21 = sub i64 %19, %20
  %22 = ashr exact i64 %21, 2
  %23 = add nsw i64 %22, 1
  br label %26

24:                                               ; preds = %15
  %25 = tail call i64 @wcslen(ptr noundef nonnull %0) #18
  br label %26

26:                                               ; preds = %24, %18
  %.0 = phi i64 [ %23, %18 ], [ %25, %24 ]
  %.not22 = icmp ult i64 %.0, %2
  %spec.store.select = select i1 %.not22, i64 %.0, i64 0
  %27 = tail call ptr @wcsncpy(ptr noundef nonnull %1, ptr noundef nonnull %0, i64 noundef %spec.store.select) #19
  %28 = getelementptr inbounds i32, ptr %1, i64 %spec.store.select
  store i32 0, ptr %28, align 4
  br label %29

29:                                               ; preds = %3, %8, %26, %12
  ret void
}